; Function Attrs: nounwind uwtable
define dso_local noundef zeroext i1 @Curl_bufq_peek(ptr noundef captures(none) %0, ptr noundef writeonly captures(none) %1, ptr noundef writeonly captures(none) %2) local_unnamed_addr #2 {
  %4 = load ptr, ptr %0, align 8
  %.not = icmp eq ptr %4, null
  br i1 %.not, label %prune_head.exit.thread, label %5

5:                                                ; preds = %3
  %6 = getelementptr i8, ptr %4, i64 16
  %.val15 = load i64, ptr %6, align 8
  %7 = getelementptr i8, ptr %4, i64 24
  %.val16 = load i64, ptr %7, align 8
  %.not18 = icmp ult i64 %.val15, %.val16
  br i1 %.not18, label %prune_head.exit, label %.lr.ph.i

.lr.ph.i:                                         ; preds = %5
  %8 = getelementptr inbounds nuw i8, ptr %0, i64 8
  %9 = getelementptr inbounds nuw i8, ptr %0, i64 24
  %10 = getelementptr inbounds nuw i8, ptr %0, i64 32
  %11 = getelementptr inbounds nuw i8, ptr %0, i64 40
  %12 = getelementptr inbounds nuw i8, ptr %0, i64 56
  %13 = getelementptr inbounds nuw i8, ptr %0, i64 16
  br label %14

14:                                               ; preds = %51, %.lr.ph.i
  %15 = phi ptr [ %4, %.lr.ph.i ], [ %52, %51 ]
  %16 = getelementptr i8, ptr %15, i64 16
  %.val.i = load i64, ptr %16, align 8
  %17 = getelementptr i8, ptr %15, i64 24
  %.val25.i = load i64, ptr %17, align 8
  %.not26.i = icmp ult i64 %.val.i, %.val25.i
  br i1 %.not26.i, label %prune_head.exit, label %18

18:                                               ; preds = %14
  %19 = load ptr, ptr %15, align 8
  store ptr %19, ptr %0, align 8
  %20 = load ptr, ptr %8, align 8
  %21 = icmp eq ptr %20, %15
  br i1 %21, label %22, label %23

22:                                               ; preds = %18
  store ptr %19, ptr %8, align 8
  br label %23

23:                                               ; preds = %22, %18
  %24 = load ptr, ptr %9, align 8
  %.not23.i = icmp eq ptr %24, null
  br i1 %.not23.i, label %38, label %25

25:                                               ; preds = %23
  %26 = getelementptr inbounds nuw i8, ptr %24, i64 16
  %27 = load i64, ptr %26, align 8
  %28 = getelementptr inbounds nuw i8, ptr %24, i64 24
  %29 = load i64, ptr %28, align 8
  %.not.i.i = icmp ult i64 %27, %29
  br i1 %.not.i.i, label %32, label %30

30:                                               ; preds = %25
  %31 = load ptr, ptr @Curl_cfree, align 8
  tail call void %31(ptr noundef nonnull %15) #11
  br label %bufcp_put.exit.i

32:                                               ; preds = %25
  store ptr null, ptr %15, align 8
  tail call void @llvm.memset.p0.i64(ptr noundef nonnull align 8 dereferenceable(16) %16, i8 0, i64 16, i1 false)
  %33 = load ptr, ptr %24, align 8
  store ptr %33, ptr %15, align 8
  store ptr %15, ptr %24, align 8
  %34 = load i64, ptr %26, align 8
  %35 = add i64 %34, 1
  store i64 %35, ptr %26, align 8
  br label %bufcp_put.exit.i

bufcp_put.exit.i:                                 ; preds = %32, %30
  %36 = load i64, ptr %10, align 8
  %37 = add i64 %36, -1
  store i64 %37, ptr %10, align 8
  br label %51

38:                                               ; preds = %23
  %39 = load i64, ptr %10, align 8
  %40 = load i64, ptr %11, align 8
  %41 = icmp ugt i64 %39, %40
  br i1 %41, label %45, label %42

42:                                               ; preds = %38
  %43 = load i32, ptr %12, align 8
  %44 = and i32 %43, 2
  %.not24.i = icmp eq i32 %44, 0
  br i1 %.not24.i, label %49, label %45

45:                                               ; preds = %42, %38
  %46 = load ptr, ptr @Curl_cfree, align 8
  tail call void %46(ptr noundef nonnull %15) #11
  %47 = load i64, ptr %10, align 8
  %48 = add i64 %47, -1
  store i64 %48, ptr %10, align 8
  br label %51

49:                                               ; preds = %42
  %50 = load ptr, ptr %13, align 8
  store ptr %50, ptr %15, align 8
  store ptr %15, ptr %13, align 8
  br label %51

51:                                               ; preds = %49, %45, %bufcp_put.exit.i
  %52 = load ptr, ptr %0, align 8
  %.not.i = icmp eq ptr %52, null
  br i1 %.not.i, label %prune_head.exit.thread, label %14, !llvm.loop !11

prune_head.exit:                                  ; preds = %14, %5
  %.val14 = phi i64 [ %.val16, %5 ], [ %.val25.i, %14 ]
  %.val = phi i64 [ %.val15, %5 ], [ %.val.i, %14 ]
  %.pr = phi ptr [ %4, %5 ], [ %15, %14 ]
  %.not19 = icmp ult i64 %.val, %.val14
  br i1 %.not19, label %53, label %prune_head.exit.thread

53:                                               ; preds = %prune_head.exit
  %54 = getelementptr i8, ptr %.pr, i64 24
  %55 = getelementptr i8, ptr %.pr, i64 16
  %56 = getelementptr inbounds nuw i8, ptr %.pr, i64 32
  %57 = getelementptr inbounds [1 x i8], ptr %56, i64 0, i64 %.val
  store ptr %57, ptr %1, align 8
  %58 = load i64, ptr %54, align 8
  %59 = load i64, ptr %55, align 8
  %60 = sub i64 %58, %59
  br label %61

prune_head.exit.thread:                           ; preds = %51, %3, %prune_head.exit
  store ptr null, ptr %1, align 8
  br label %61

61:                                               ; preds = %prune_head.exit.thread, %53
  %storemerge = phi i64 [ %60, %53 ], [ 0, %prune_head.exit.thread ]
  %.0 = phi i1 [ true, %53 ], [ false, %prune_head.exit.thread ]
  store i64 %storemerge, ptr %2, align 8
  ret i1 %.0
}